target datalayout = "e-m:e-p270:32:32-p271:32:32-p272:64:64-i64:64-i128:128-f80:128-n8:16:32:64-S128"
target triple = "x86_64-pc-linux-gnu"

%struct.tMPI_Atomic = type { i32, [60 x i8] }
%struct.tmpi_comm_ = type { %struct.tmpi_group_, %struct.tMPI_Barrier_t, ptr, ptr, i32, ptr, ptr, ptr, ptr, %struct.tMPI_Thread_mutex_t, %struct.tMPI_Thread_cond_t, %struct.tMPI_Thread_cond_t, ptr, ptr, ptr, ptr, ptr, ptr, %struct.tMPI_Atomic }
%struct.tmpi_group_ = type { i32, ptr }
%struct.tMPI_Barrier_t = type { %struct.tMPI_Atomic, i32, %struct.tMPI_Atomic }
%struct.tMPI_Thread_mutex_t = type { %struct.tMPI_Atomic, ptr }
%struct.tMPI_Thread_cond_t = type { %struct.tMPI_Atomic, ptr }

; Function Attrs: mustprogress nounwind uwtable
define noundef i32 @_Z17tMPI_Comm_compareP10tmpi_comm_S0_Pi(ptr noundef %0, ptr noundef %1, ptr noundef %2) #0 {
  %4 = alloca i32, align 4
  %5 = alloca ptr, align 8
  %6 = alloca ptr, align 8
  %7 = alloca ptr, align 8
  %8 = alloca i32, align 4
  %9 = alloca i32, align 4
  %10 = alloca i32, align 4
  %11 = alloca i32, align 4
  store ptr %0, ptr %5, align 8, !tbaa !3
  store ptr %1, ptr %6, align 8, !tbaa !3
  store ptr %2, ptr %7, align 8, !tbaa !29
  call void @llvm.lifetime.start.p0(i64 4, ptr %8) #8
  call void @llvm.lifetime.start.p0(i64 4, ptr %9) #8
  %12 = load ptr, ptr %5, align 8, !tbaa !3
  %13 = load ptr, ptr %6, align 8, !tbaa !3
  %14 = icmp eq ptr %12, %13
  br i1 %14, label %15, label %17

15:                                               ; preds = %3
  %16 = load ptr, ptr %7, align 8, !tbaa !29
  store i32 0, ptr %16, align 4, !tbaa !30
  store i32 0, ptr %4, align 4
  store i32 1, ptr %10, align 4
  br label %110

17:                                               ; preds = %3
  %18 = load ptr, ptr %5, align 8, !tbaa !3
  %19 = icmp ne ptr %18, null
  br i1 %19, label %20, label %23

20:                                               ; preds = %17
  %21 = load ptr, ptr %6, align 8, !tbaa !3
  %22 = icmp ne ptr %21, null
  br i1 %22, label %25, label %23

23:                                               ; preds = %20, %17
  %24 = load ptr, ptr %7, align 8, !tbaa !29
  store i32 3, ptr %24, align 4, !tbaa !30
  store i32 0, ptr %4, align 4
  store i32 1, ptr %10, align 4
  br label %110

25:                                               ; preds = %20
  %26 = load ptr, ptr %5, align 8, !tbaa !3
  %27 = getelementptr inbounds nuw %struct.tmpi_comm_, ptr %26, i32 0, i32 0
  %28 = getelementptr inbounds nuw %struct.tmpi_group_, ptr %27, i32 0, i32 0
  %29 = load i32, ptr %28, align 8, !tbaa !8
  %30 = load ptr, ptr %6, align 8, !tbaa !3
  %31 = getelementptr inbounds nuw %struct.tmpi_comm_, ptr %30, i32 0, i32 0
  %32 = getelementptr inbounds nuw %struct.tmpi_group_, ptr %31, i32 0, i32 0
  %33 = load i32, ptr %32, align 8, !tbaa !8
  %34 = icmp ne i32 %29, %33
  br i1 %34, label %35, label %37

35:                                               ; preds = %25
  %36 = load ptr, ptr %7, align 8, !tbaa !29
  store i32 3, ptr %36, align 4, !tbaa !30
  store i32 0, ptr %4, align 4
  store i32 1, ptr %10, align 4
  br label %110

37:                                               ; preds = %25
  %38 = load ptr, ptr %7, align 8, !tbaa !29
  store i32 1, ptr %38, align 4, !tbaa !30
  store i32 0, ptr %8, align 4, !tbaa !30
  br label %39

39:                                               ; preds = %106, %37
  %40 = load i32, ptr %8, align 4, !tbaa !30
  %41 = load ptr, ptr %5, align 8, !tbaa !3
  %42 = getelementptr inbounds nuw %struct.tmpi_comm_, ptr %41, i32 0, i32 0
  %43 = getelementptr inbounds nuw %struct.tmpi_group_, ptr %42, i32 0, i32 0
  %44 = load i32, ptr %43, align 8, !tbaa !8
  %45 = icmp slt i32 %40, %44
  br i1 %45, label %46, label %109

46:                                               ; preds = %39
  %47 = load ptr, ptr %5, align 8, !tbaa !3
  %48 = getelementptr inbounds nuw %struct.tmpi_comm_, ptr %47, i32 0, i32 0
  %49 = getelementptr inbounds nuw %struct.tmpi_group_, ptr %48, i32 0, i32 1
  %50 = load ptr, ptr %49, align 8, !tbaa !31
  %51 = load i32, ptr %8, align 4, !tbaa !30
  %52 = sext i32 %51 to i64
  %53 = getelementptr inbounds ptr, ptr %50, i64 %52
  %54 = load ptr, ptr %53, align 8, !tbaa !32
  %55 = load ptr, ptr %6, align 8, !tbaa !3
  %56 = getelementptr inbounds nuw %struct.tmpi_comm_, ptr %55, i32 0, i32 0
  %57 = getelementptr inbounds nuw %struct.tmpi_group_, ptr %56, i32 0, i32 1
  %58 = load ptr, ptr %57, align 8, !tbaa !31
  %59 = load i32, ptr %8, align 4, !tbaa !30
  %60 = sext i32 %59 to i64
  %61 = getelementptr inbounds ptr, ptr %58, i64 %60
  %62 = load ptr, ptr %61, align 8, !tbaa !32
  %63 = icmp ne ptr %54, %62
  br i1 %63, label %64, label %105

64:                                               ; preds = %46
  call void @llvm.lifetime.start.p0(i64 4, ptr %11) #8
  store i32 0, ptr %11, align 4, !tbaa !30
  %65 = load ptr, ptr %7, align 8, !tbaa !29
  store i32 2, ptr %65, align 4, !tbaa !30
  store i32 0, ptr %9, align 4, !tbaa !30
  br label %66

66:                                               ; preds = %93, %64
  %67 = load i32, ptr %9, align 4, !tbaa !30
  %68 = load ptr, ptr %6, align 8, !tbaa !3
  %69 = getelementptr inbounds nuw %struct.tmpi_comm_, ptr %68, i32 0, i32 0
  %70 = getelementptr inbounds nuw %struct.tmpi_group_, ptr %69, i32 0, i32 0
  %71 = load i32, ptr %70, align 8, !tbaa !8
  %72 = icmp slt i32 %67, %71
  br i1 %72, label %73, label %96

73:                                               ; preds = %66
  %74 = load ptr, ptr %5, align 8, !tbaa !3
  %75 = getelementptr inbounds nuw %struct.tmpi_comm_, ptr %74, i32 0, i32 0
  %76 = getelementptr inbounds nuw %struct.tmpi_group_, ptr %75, i32 0, i32 1
  %77 = load ptr, ptr %76, align 8, !tbaa !31
  %78 = load i32, ptr %8, align 4, !tbaa !30
  %79 = sext i32 %78 to i64
  %80 = getelementptr inbounds ptr, ptr %77, i64 %79
  %81 = load ptr, ptr %80, align 8, !tbaa !32
  %82 = load ptr, ptr %6, align 8, !tbaa !3
  %83 = getelementptr inbounds nuw %struct.tmpi_comm_, ptr %82, i32 0, i32 0
  %84 = getelementptr inbounds nuw %struct.tmpi_group_, ptr %83, i32 0, i32 1
  %85 = load ptr, ptr %84, align 8, !tbaa !31
  %86 = load i32, ptr %9, align 4, !tbaa !30
  %87 = sext i32 %86 to i64
  %88 = getelementptr inbounds ptr, ptr %85, i64 %87
  %89 = load ptr, ptr %88, align 8, !tbaa !32
  %90 = icmp eq ptr %81, %89
  br i1 %90, label %91, label %92

91:                                               ; preds = %73
  store i32 1, ptr %11, align 4, !tbaa !30
  br label %96

92:                                               ; preds = %73
  br label %93

93:                                               ; preds = %92
  %94 = load i32, ptr %9, align 4, !tbaa !30
  %95 = add nsw i32 %94, 1
  store i32 %95, ptr %9, align 4, !tbaa !30
  br label %66, !llvm.loop !34

96:                                               ; preds = %91, %66
  %97 = load i32, ptr %11, align 4, !tbaa !30
  %98 = icmp ne i32 %97, 0
  br i1 %98, label %101, label %99

99:                                               ; preds = %96
  %100 = load ptr, ptr %7, align 8, !tbaa !29
  store i32 3, ptr %100, align 4, !tbaa !30
  store i32 0, ptr %4, align 4
  store i32 1, ptr %10, align 4
  br label %102

101:                                              ; preds = %96
  store i32 0, ptr %10, align 4
  br label %102

102:                                              ; preds = %101, %99
  call void @llvm.lifetime.end.p0(i64 4, ptr %11) #8
  %103 = load i32, ptr %10, align 4
  switch i32 %103, label %110 [
    i32 0, label %104
  ]

104:                                              ; preds = %102
  br label %105

105:                                              ; preds = %104, %46
  br label %106

106:                                              ; preds = %105
  %107 = load i32, ptr %8, align 4, !tbaa !30
  %108 = add nsw i32 %107, 1
  store i32 %108, ptr %8, align 4, !tbaa !30
  br label %39, !llvm.loop !36

109:                                              ; preds = %39
  store i32 0, ptr %4, align 4
  store i32 1, ptr %10, align 4
  br label %110

110:                                              ; preds = %109, %102, %35, %23, %15
  call void @llvm.lifetime.end.p0(i64 4, ptr %9) #8
  call void @llvm.lifetime.end.p0(i64 4, ptr %8) #8
  %111 = load i32, ptr %4, align 4
  ret i32 %111
}