; Function Attrs: mustprogress nofree norecurse nosync nounwind memory(read, argmem: readwrite, inaccessiblemem: none) uwtable
define noundef i32 @_Z17tMPI_Comm_compareP10tmpi_comm_S0_Pi(ptr noundef readonly %0, ptr noundef readonly %1, ptr noundef writeonly captures(none) initializes((0, 4)) %2) local_unnamed_addr #3 {
  %4 = icmp eq ptr %0, %1
  br i1 %4, label %.loopexit.sink.split, label %5

5:                                                ; preds = %3
  %6 = icmp ne ptr %0, null
  %7 = icmp ne ptr %1, null
  %or.cond = and i1 %6, %7
  br i1 %or.cond, label %8, label %.loopexit.sink.split

8:                                                ; preds = %5
  %9 = load i32, ptr %0, align 8, !tbaa !3
  %10 = load i32, ptr %1, align 8, !tbaa !3
  %.not = icmp eq i32 %9, %10
  br i1 %.not, label %11, label %.loopexit.sink.split

11:                                               ; preds = %8
  store i32 1, ptr %2, align 4, !tbaa !28
  %12 = load i32, ptr %0, align 8, !tbaa !3
  %13 = icmp sgt i32 %12, 0
  br i1 %13, label %.lr.ph45, label %.loopexit

.lr.ph45:                                         ; preds = %11
  %14 = getelementptr inbounds nuw i8, ptr %0, i64 8
  %15 = load ptr, ptr %14, align 8, !tbaa !29
  %16 = getelementptr inbounds nuw i8, ptr %1, i64 8
  %17 = load ptr, ptr %16, align 8, !tbaa !29
  br label %18

18:                                               ; preds = %.lr.ph45, %.critedge39
  %19 = phi i32 [ %12, %.lr.ph45 ], [ %30, %.critedge39 ]
  %indvars.iv48 = phi i64 [ 0, %.lr.ph45 ], [ %indvars.iv.next49, %.critedge39 ]
  %20 = getelementptr inbounds nuw ptr, ptr %15, i64 %indvars.iv48
  %21 = load ptr, ptr %20, align 8, !tbaa !30
  %22 = getelementptr inbounds nuw ptr, ptr %17, i64 %indvars.iv48
  %23 = load ptr, ptr %22, align 8, !tbaa !30
  %.not35 = icmp eq ptr %21, %23
  br i1 %.not35, label %.critedge39, label %24

24:                                               ; preds = %18
  store i32 2, ptr %2, align 4, !tbaa !28
  %25 = load i32, ptr %1, align 8, !tbaa !3
  %.not3741 = icmp sgt i32 %25, 0
  br i1 %.not3741, label %.lr.ph.preheader, label %.loopexit.sink.split

.lr.ph.preheader:                                 ; preds = %24
  %wide.trip.count = zext nneg i32 %25 to i64
  br label %.lr.ph

26:                                               ; preds = %.lr.ph
  %indvars.iv.next = add nuw nsw i64 %indvars.iv, 1
  %exitcond.not = icmp eq i64 %indvars.iv.next, %wide.trip.count
  br i1 %exitcond.not, label %.loopexit.sink.split, label %.lr.ph, !llvm.loop !32

.lr.ph:                                           ; preds = %.lr.ph.preheader, %26
  %indvars.iv = phi i64 [ 0, %.lr.ph.preheader ], [ %indvars.iv.next, %26 ]
  %27 = getelementptr inbounds nuw ptr, ptr %17, i64 %indvars.iv
  %28 = load ptr, ptr %27, align 8, !tbaa !30
  %29 = icmp eq ptr %21, %28
  br i1 %29, label %.critedge39.loopexit, label %26

.critedge39.loopexit:                             ; preds = %.lr.ph
  %.pre = load i32, ptr %0, align 8, !tbaa !3
  br label %.critedge39

.critedge39:                                      ; preds = %.critedge39.loopexit, %18
  %30 = phi i32 [ %.pre, %.critedge39.loopexit ], [ %19, %18 ]
  %indvars.iv.next49 = add nuw nsw i64 %indvars.iv48, 1
  %31 = sext i32 %30 to i64
  %32 = icmp slt i64 %indvars.iv.next49, %31
  br i1 %32, label %18, label %.loopexit, !llvm.loop !34

.loopexit.sink.split:                             ; preds = %24, %26, %8, %5, %3
  %.sink = phi i32 [ 0, %3 ], [ 3, %5 ], [ 3, %8 ], [ 3, %26 ], [ 3, %24 ]
  store i32 %.sink, ptr %2, align 4, !tbaa !28
  br label %.loopexit

.loopexit:                                        ; preds = %.critedge39, %.loopexit.sink.split, %11
  ret i32 0
}